; Function Attrs: mustprogress nounwind uwtable
define noundef zeroext i1 @_ZN32pxrInternal_v0_24__pxrReserved__12TfPathExistsERKNSt7__cxx1112basic_stringIcSt11char_traitsIcESaIcEEEb(ptr noundef nonnull align 8 dereferenceable(32) %0, i1 noundef zeroext %1) local_unnamed_addr #0 {
  %3 = alloca %struct.stat, align 8
  call void @llvm.lifetime.start.p0(i64 144, ptr nonnull %3)
  %4 = tail call noundef zeroext i1 @_ZNKSt7__cxx1112basic_stringIcSt11char_traitsIcESaIcEE5emptyEv(ptr noundef nonnull align 8 dereferenceable(32) %0) #21
  br i1 %4, label %_ZN32pxrInternal_v0_24__pxrReserved__L7Tf_StatERKNSt7__cxx1112basic_stringIcSt11char_traitsIcESaIcEEEbP4stat.exit.thread, label %5

_ZN32pxrInternal_v0_24__pxrReserved__L7Tf_StatERKNSt7__cxx1112basic_stringIcSt11char_traitsIcESaIcEEEbP4stat.exit.thread: ; preds = %2
  call void @llvm.lifetime.end.p0(i64 144, ptr nonnull %3)
  br label %13

5:                                                ; preds = %2
  %6 = tail call noundef ptr @_ZNKSt7__cxx1112basic_stringIcSt11char_traitsIcESaIcEE5c_strEv(ptr noundef nonnull align 8 dereferenceable(32) %0) #21
  br i1 %1, label %7, label %9

7:                                                ; preds = %5
  %8 = call i32 @stat(ptr noundef %6, ptr noundef nonnull %3) #21
  br label %_ZN32pxrInternal_v0_24__pxrReserved__L7Tf_StatERKNSt7__cxx1112basic_stringIcSt11char_traitsIcESaIcEEEbP4stat.exit

9:                                                ; preds = %5
  %10 = call i32 @lstat(ptr noundef %6, ptr noundef nonnull %3) #21
  br label %_ZN32pxrInternal_v0_24__pxrReserved__L7Tf_StatERKNSt7__cxx1112basic_stringIcSt11char_traitsIcESaIcEEEbP4stat.exit

_ZN32pxrInternal_v0_24__pxrReserved__L7Tf_StatERKNSt7__cxx1112basic_stringIcSt11char_traitsIcESaIcEEEbP4stat.exit: ; preds = %7, %9
  %11 = phi i32 [ %8, %7 ], [ %10, %9 ]
  %12 = icmp eq i32 %11, 0
  call void @llvm.lifetime.end.p0(i64 144, ptr nonnull %3)
  br i1 %12, label %18, label %13

13:                                               ; preds = %_ZN32pxrInternal_v0_24__pxrReserved__L7Tf_StatERKNSt7__cxx1112basic_stringIcSt11char_traitsIcESaIcEEEbP4stat.exit.thread, %_ZN32pxrInternal_v0_24__pxrReserved__L7Tf_StatERKNSt7__cxx1112basic_stringIcSt11char_traitsIcESaIcEEEbP4stat.exit
  %14 = tail call ptr @__errno_location() #22
  %15 = load i32, ptr %14, align 4
  %16 = icmp eq i32 %15, 2
  br i1 %16, label %17, label %18

17:                                               ; preds = %13
  store i32 0, ptr %14, align 4
  br label %18

18:                                               ; preds = %13, %17, %_ZN32pxrInternal_v0_24__pxrReserved__L7Tf_StatERKNSt7__cxx1112basic_stringIcSt11char_traitsIcESaIcEEEbP4stat.exit
  %.0.i4 = phi i1 [ false, %13 ], [ false, %17 ], [ true, %_ZN32pxrInternal_v0_24__pxrReserved__L7Tf_StatERKNSt7__cxx1112basic_stringIcSt11char_traitsIcESaIcEEEbP4stat.exit ]
  ret i1 %.0.i4
}